; Function Attrs: mustprogress uwtable
define void @_ZN5faiss22IndexAdditiveQuantizerC2ElPNS_17AdditiveQuantizerENS_10MetricTypeE(ptr noundef nonnull align 8 dereferenceable(80) %0, i64 noundef %1, ptr noundef %2, i32 noundef %3) unnamed_addr #2 align 2 personality ptr @__gxx_personality_v0 {
  %5 = alloca %"class.std::__cxx11::basic_string", align 8
  %6 = getelementptr inbounds i8, ptr %2, i64 16
  %7 = load i64, ptr %6, align 8
  tail call void @_ZN5faiss14IndexFlatCodesC2EmlNS_10MetricTypeE(ptr noundef nonnull align 8 dereferenceable(72) %0, i64 noundef %7, i64 noundef %1, i32 noundef %3)
  store ptr getelementptr inbounds ({ [25 x ptr] }, ptr @_ZTVN5faiss22IndexAdditiveQuantizerE, i64 0, i32 0, i64 2), ptr %0, align 8
  %8 = getelementptr inbounds i8, ptr %0, i64 72
  store ptr %2, ptr %8, align 8
  %or.cond = icmp ult i32 %3, 2
  br i1 %or.cond, label %25, label %9

9:                                                ; preds = %4
  call void @_ZNSt7__cxx1112basic_stringIcSt11char_traitsIcESaIcEEC1Ev(ptr noundef nonnull align 8 dereferenceable(32) %5) #14
  %10 = call i32 (ptr, i64, ptr, ...) @snprintf(ptr noundef null, i64 noundef 0, ptr noundef nonnull @.str, ptr noundef nonnull @.str.1) #14
  %11 = add nsw i32 %10, 1
  %12 = sext i32 %11 to i64
  invoke void @_ZNSt7__cxx1112basic_stringIcSt11char_traitsIcESaIcEE6resizeEm(ptr noundef nonnull align 8 dereferenceable(32) %5, i64 noundef %12)
          to label %13 unwind label %20

13:                                               ; preds = %9
  %14 = invoke noundef nonnull align 1 dereferenceable(1) ptr @_ZNSt7__cxx1112basic_stringIcSt11char_traitsIcESaIcEEixEm(ptr noundef nonnull align 8 dereferenceable(32) %5, i64 noundef 0)
          to label %15 unwind label %20

15:                                               ; preds = %13
  %16 = call noundef i64 @_ZNKSt7__cxx1112basic_stringIcSt11char_traitsIcESaIcEE4sizeEv(ptr noundef nonnull align 8 dereferenceable(32) %5) #14
  %17 = call i32 (ptr, i64, ptr, ...) @snprintf(ptr noundef nonnull %14, i64 noundef %16, ptr noundef nonnull @.str, ptr noundef nonnull @.str.1) #14
  %18 = call ptr @__cxa_allocate_exception(i64 40) #14
  invoke void @_ZN5faiss14FaissExceptionC1ERKNSt7__cxx1112basic_stringIcSt11char_traitsIcESaIcEEEPKcSA_i(ptr noundef nonnull align 8 dereferenceable(40) %18, ptr noundef nonnull align 8 dereferenceable(32) %5, ptr noundef nonnull @__PRETTY_FUNCTION__._ZN5faiss22IndexAdditiveQuantizerC2ElPNS_17AdditiveQuantizerENS_10MetricTypeE, ptr noundef nonnull @.str.2, i32 noundef 32)
          to label %19 unwind label %22

19:                                               ; preds = %15
  invoke void @__cxa_throw(ptr nonnull %18, ptr nonnull @_ZTIN5faiss14FaissExceptionE, ptr nonnull @_ZN5faiss14FaissExceptionD2Ev) #21
          to label %26 unwind label %20

20:                                               ; preds = %19, %13, %9
  %21 = landingpad { ptr, i32 }
          cleanup
  br label %24

22:                                               ; preds = %15
  %23 = landingpad { ptr, i32 }
          cleanup
  call void @__cxa_free_exception(ptr %18) #14
  br label %24

24:                                               ; preds = %22, %20
  %.pn = phi { ptr, i32 } [ %21, %20 ], [ %23, %22 ]
  call void @_ZNSt7__cxx1112basic_stringIcSt11char_traitsIcESaIcEED1Ev(ptr noundef nonnull align 8 dereferenceable(32) %5) #14
  call void @_ZN5faiss14IndexFlatCodesD2Ev(ptr noundef nonnull align 8 dereferenceable(72) %0) #14
  resume { ptr, i32 } %.pn

25:                                               ; preds = %4
  ret void

26:                                               ; preds = %19
  unreachable
}